###############################################################################
#                                                                             #
# IAR C/C++ Compiler V8.10.3.10338/W32 for 8051         23/Aug/2018  19:25:21 #
# Copyright 2004-2011 IAR Systems AB.                                         #
#                                                                             #
#    Core               =  plain                                              #
#    Code model         =  banked                                             #
#    Data model         =  large                                              #
#    Calling convention =  xdata reentrant                                    #
#    Constant location  =  data_rom                                           #
#    Dptr setup         =  1,16                                               #
#    Source file        =  D:\zigbee_sim\Projects\zstack\Samples\SampleApp\So #
#                          urce\OSAL_SampleApp.c                              #
#    Command line       =  -f D:\zigbee_sim\Projects\zstack\Samples\SampleApp #
#                          \CC2530DB\..\..\..\Tools\CC2530DB\f8wRouter.cfg    #
#                          (-DCPU32MHZ -DROOT=__near_func                     #
#                          -DMAC_CFG_APP_PENDING_QUEUE=TRUE -DRTR_NWK         #
#                          -DBLINK_LEDS) -f D:\zigbee_sim\Projects\zstack\Sam #
#                          ples\SampleApp\CC2530DB\..\..\..\Tools\CC2530DB\f8 #
#                          wConfig.cfg (-DSECURE=0 -DZG_SECURE_DYNAMIC=0      #
#                          -DREFLECTOR -DDEFAULT_CHANLIST=0x00000800          #
#                          -DZDAPP_CONFIG_PAN_ID=0xFFF1                       #
#                          -DNWK_START_DELAY=100 -DEXTENDED_JOINING_RANDOM_MA #
#                          SK=0x007F -DBEACON_REQUEST_DELAY=100               #
#                          -DBEACON_REQ_DELAY_MASK=0x00FF                     #
#                          -DROUTE_EXPIRY_TIME=30 -DAPSC_ACK_WAIT_DURATION_PO #
#                          LLED=3000 -DNWK_INDIRECT_MSG_TIMEOUT=7             #
#                          -DMAX_RREQ_ENTRIES=8 -DAPSC_MAX_FRAME_RETRIES=3    #
#                          -DNWK_MAX_DATA_RETRIES=2                           #
#                          -DMAX_POLL_FAILURE_RETRIES=2 -DMAX_BCAST=9         #
#                          -DAPS_MAX_GROUPS=16 -DMAX_RTG_ENTRIES=40           #
#                          -DNWK_MAX_BINDING_ENTRIES=4                        #
#                          -DMAX_BINDING_CLUSTER_IDS=4 "-DDEFAULT_KEY={0x01,  #
#                          0x03, 0x05, 0x07, 0x09, 0x0B, 0x0D, 0x0F, 0x00,    #
#                          0x02, 0x04, 0x06, 0x08, 0x0A, 0x0C, 0x0D}"         #
#                          -DMAC_MAX_FRAME_SIZE=116 "-DCONST=const __code"    #
#                          -DGENERIC=__generic -DRFD_RCVC_ALWAYS_ON=FALSE     #
#                          -DPOLL_RATE=1000 -DQUEUED_POLL_RATE=100            #
#                          -DRESPONSE_POLL_RATE=100) -DREJOIN_POLL_RATE=440   #
#                          D:\zigbee_sim\Projects\zstack\Samples\SampleApp\So #
#                          urce\OSAL_SampleApp.c -D ZIGBEEPRO -D ZTOOL_P1 -D  #
#                          MT_TASK -D MT_SYS_FUNC -D MT_ZDO_FUNC -D           #
#                          LCD_SUPPORTED=DEBUG -lC D:\zigbee_sim\Projects\zst #
#                          ack\Samples\SampleApp\CC2530DB\RouterEB-Pro\List\  #
#                          -lA D:\zigbee_sim\Projects\zstack\Samples\SampleAp #
#                          p\CC2530DB\RouterEB-Pro\List\ --diag_suppress      #
#                          Pe001,Pa010 -o D:\zigbee_sim\Projects\zstack\Sampl #
#                          es\SampleApp\CC2530DB\RouterEB-Pro\Obj\ -e         #
#                          --debug --core=plain --dptr=16,1                   #
#                          --data_model=large --code_model=banked             #
#                          --calling_convention=xdata_reentrant               #
#                          --place_constants=data_rom --nr_virtual_regs 16    #
#                          -I D:\zigbee_sim\Projects\zstack\Samples\SampleApp #
#                          \CC2530DB\ -I D:\zigbee_sim\Projects\zstack\Sample #
#                          s\SampleApp\CC2530DB\..\SOURCE\ -I                 #
#                          D:\zigbee_sim\Projects\zstack\Samples\SampleApp\CC #
#                          2530DB\..\..\..\ZMAIN\TI2530DB\ -I                 #
#                          D:\zigbee_sim\Projects\zstack\Samples\SampleApp\CC #
#                          2530DB\..\..\..\..\..\COMPONENTS\MT\ -I            #
#                          D:\zigbee_sim\Projects\zstack\Samples\SampleApp\CC #
#                          2530DB\..\..\..\..\..\COMPONENTS\HAL\INCLUDE\ -I   #
#                          D:\zigbee_sim\Projects\zstack\Samples\SampleApp\CC #
#                          2530DB\..\..\..\..\..\COMPONENTS\HAL\TARGET\CC2530 #
#                          EB\ -I D:\zigbee_sim\Projects\zstack\Samples\Sampl #
#                          eApp\CC2530DB\..\..\..\..\..\COMPONENTS\OSAL\MCU\C #
#                          CSOC\ -I D:\zigbee_sim\Projects\zstack\Samples\Sam #
#                          pleApp\CC2530DB\..\..\..\..\..\COMPONENTS\OSAL\INC #
#                          LUDE\ -I D:\zigbee_sim\Projects\zstack\Samples\Sam #
#                          pleApp\CC2530DB\..\..\..\..\..\COMPONENTS\STACK\AF #
#                          \ -I D:\zigbee_sim\Projects\zstack\Samples\SampleA #
#                          pp\CC2530DB\..\..\..\..\..\COMPONENTS\STACK\NWK\   #
#                          -I D:\zigbee_sim\Projects\zstack\Samples\SampleApp #
#                          \CC2530DB\..\..\..\..\..\COMPONENTS\STACK\SEC\ -I  #
#                          D:\zigbee_sim\Projects\zstack\Samples\SampleApp\CC #
#                          2530DB\..\..\..\..\..\COMPONENTS\STACK\SAPI\ -I    #
#                          D:\zigbee_sim\Projects\zstack\Samples\SampleApp\CC #
#                          2530DB\..\..\..\..\..\COMPONENTS\STACK\SYS\ -I     #
#                          D:\zigbee_sim\Projects\zstack\Samples\SampleApp\CC #
#                          2530DB\..\..\..\..\..\COMPONENTS\STACK\ZDO\ -I     #
#                          D:\zigbee_sim\Projects\zstack\Samples\SampleApp\CC #
#                          2530DB\..\..\..\..\..\COMPONENTS\ZMAC\F8W\ -I      #
#                          D:\zigbee_sim\Projects\zstack\Samples\SampleApp\CC #
#                          2530DB\..\..\..\..\..\COMPONENTS\ZMAC\ -I          #
#                          D:\zigbee_sim\Projects\zstack\Samples\SampleApp\CC #
#                          2530DB\..\..\..\..\..\COMPONENTS\SERVICES\SADDR\   #
#                          -I D:\zigbee_sim\Projects\zstack\Samples\SampleApp #
#                          \CC2530DB\..\..\..\..\..\COMPONENTS\SERVICES\SDATA #
#                          \ -I D:\zigbee_sim\Projects\zstack\Samples\SampleA #
#                          pp\CC2530DB\..\..\..\..\..\COMPONENTS\MAC\INCLUDE\ #
#                           -I D:\zigbee_sim\Projects\zstack\Samples\SampleAp #
#                          p\CC2530DB\..\..\..\..\..\COMPONENTS\MAC\HIGH_LEVE #
#                          L\ -I D:\zigbee_sim\Projects\zstack\Samples\Sample #
#                          App\CC2530DB\..\..\..\..\..\COMPONENTS\MAC\LOW_LEV #
#                          EL\srf04\ -I D:\zigbee_sim\Projects\zstack\Samples #
#                          \SampleApp\CC2530DB\..\..\..\..\..\COMPONENTS\MAC\ #
#                          LOW_LEVEL\srf04\SINGLE_CHIP\ -Ohz                  #
#                          --require_prototypes                               #
#    List file          =  D:\zigbee_sim\Projects\zstack\Samples\SampleApp\CC #
#                          2530DB\RouterEB-Pro\List\OSAL_SampleApp.lst        #
#    Object file        =  D:\zigbee_sim\Projects\zstack\Samples\SampleApp\CC #
#                          2530DB\RouterEB-Pro\Obj\OSAL_SampleApp.r51         #
#                                                                             #
#                                                                             #
###############################################################################

D:\zigbee_sim\Projects\zstack\Samples\SampleApp\Source\OSAL_SampleApp.c
      1          /*
      2           * INCLUDES
      3           */
      4          
      5          #include "ZComDef.h"
      6          #include "hal_drivers.h"
      7          #include "OSAL.h"
      8          #include "OSAL_Tasks.h"
      9          
     10          #if defined ( MT_TASK )
     11            #include "MT.h"
     12            #include "MT_TASK.h"
     13          #endif
     14          
     15          #include "nwk.h"
     16          #include "APS.h"
     17          #include "ZDApp.h"
     18          #if defined ( ZIGBEE_FREQ_AGILITY ) || defined ( ZIGBEE_PANID_CONFLICT )
     19            #include "ZDNwkMgr.h"
     20          #endif
     21          #if defined ( ZIGBEE_FRAGMENTATION )
     22            #include "aps_frag.h"
     23          #endif
     24          
     25          #include "SampleApp.h"
     26          
     27          /*********************************************************************
     28           * GLOBAL VARIABLES
     29           */
     30          
     31          // The order in this table must be identical to the task initialization calls below in osalInitTask.

   \                                 In  segment XDATA_ROM_C, align 1
     32          const pTaskEventHandlerFn tasksArr[] = {
   \                     tasksArr:
   \   000000   ....         DW ??macEventLoop?relay
   \   000002   ....         DW ??nwk_event_loop?relay
   \   000004   ....         DW ??Hal_ProcessEvent?relay
   \   000006   ....         DW ??MT_ProcessEvent?relay
   \   000008   ....         DW ??APS_event_loop?relay
   \   00000A   ....         DW ??APSF_ProcessEvent?relay
   \   00000C   ....         DW ??ZDApp_event_loop?relay
   \   00000E   ....         DW ??ZDNwkMgr_event_loop?relay
   \   000010   ....         DW ??SampleApp_ProcessEvent?relay
     33            macEventLoop,
     34            nwk_event_loop,
     35            Hal_ProcessEvent,
     36          #if defined( MT_TASK )
     37            MT_ProcessEvent,
     38          #endif
     39            APS_event_loop,
     40          #if defined ( ZIGBEE_FRAGMENTATION )
     41            APSF_ProcessEvent,
     42          #endif
     43            ZDApp_event_loop,
     44          #if defined ( ZIGBEE_FREQ_AGILITY ) || defined ( ZIGBEE_PANID_CONFLICT )
     45            ZDNwkMgr_event_loop,
     46          #endif
     47            SampleApp_ProcessEvent
     48          };
     49          

   \                                 In  segment XDATA_ROM_C, align 1
     50          const uint8 tasksCnt = sizeof( tasksArr ) / sizeof( tasksArr[0] );
   \                     tasksCnt:
   \   000000   09           DB 9

   \                                 In  segment XDATA_Z, align 1, keep-with-next
     51          uint16 *tasksEvents;
   \                     tasksEvents:
   \   000000                DS 2
   \   000002                REQUIRE __INIT_XDATA_Z
     52          
     53          /*********************************************************************
     54           * FUNCTIONS
     55           *********************************************************************/
     56          
     57          /*********************************************************************
     58           * @fn      osalInitTasks
     59           *
     60           * @brief   This function invokes the initialization function for each task.
     61           *
     62           * @param   void
     63           *
     64           * @return  none
     65           */

   \                                 In  segment BANKED_CODE, align 1, keep-with-next
     66          void osalInitTasks( void )
   \                     osalInitTasks:
     67          {
   \   000000   C082         PUSH    DPL
   \   000002   C083         PUSH    DPH
   \   000004                ; Saved register size: 2
   \   000004                ; Auto size: 0
     68            uint8 taskID = 0;
     69          
     70            tasksEvents = (uint16 *)osal_mem_alloc( sizeof( uint16 ) * tasksCnt);
   \   000004                ; Setup parameters for call to function osal_mem_alloc
   \   000004   7A12         MOV     R2,#0x12
   \   000006   7B00         MOV     R3,#0x0
   \   000008   12....       LCALL   ??osal_mem_alloc?relay
   \   00000B   90....       MOV     DPTR,#tasksEvents
   \   00000E   EA           MOV     A,R2
   \   00000F   F0           MOVX    @DPTR,A
   \   000010   A3           INC     DPTR
   \   000011   EB           MOV     A,R3
   \   000012   F0           MOVX    @DPTR,A
     71            osal_memset( tasksEvents, 0, (sizeof( uint16 ) * tasksCnt));
   \   000013                ; Setup parameters for call to function osal_memset
   \   000013   7C12         MOV     R4,#0x12
   \   000015   7D00         MOV     R5,#0x0
   \   000017   7900         MOV     R1,#0x0
   \   000019   12....       LCALL   ??osal_memset?relay
     72          
     73            macTaskInit( taskID++ );
   \   00001C                ; Setup parameters for call to function macTaskInit
   \   00001C   7900         MOV     R1,#0x0
   \   00001E   12....       LCALL   ??macTaskInit?relay
     74            nwk_init( taskID++ );
   \   000021                ; Setup parameters for call to function nwk_init
   \   000021   7901         MOV     R1,#0x1
   \   000023   12....       LCALL   ??nwk_init?relay
     75            Hal_Init( taskID++ );
   \   000026                ; Setup parameters for call to function Hal_Init
   \   000026   7902         MOV     R1,#0x2
   \   000028   12....       LCALL   ??Hal_Init?relay
     76          #if defined( MT_TASK )
     77            MT_TaskInit( taskID++ );
   \   00002B                ; Setup parameters for call to function MT_TaskInit
   \   00002B   7903         MOV     R1,#0x3
   \   00002D   12....       LCALL   ??MT_TaskInit?relay
     78          #endif
     79            APS_Init( taskID++ );
   \   000030                ; Setup parameters for call to function APS_Init
   \   000030   7904         MOV     R1,#0x4
   \   000032   12....       LCALL   ??APS_Init?relay
     80          #if defined ( ZIGBEE_FRAGMENTATION )
     81            APSF_Init( taskID++ );
   \   000035                ; Setup parameters for call to function APSF_Init
   \   000035   7905         MOV     R1,#0x5
   \   000037   12....       LCALL   ??APSF_Init?relay
     82          #endif
     83            ZDApp_Init( taskID++ );
   \   00003A                ; Setup parameters for call to function ZDApp_Init
   \   00003A   7906         MOV     R1,#0x6
   \   00003C   12....       LCALL   ??ZDApp_Init?relay
     84          #if defined ( ZIGBEE_FREQ_AGILITY ) || defined ( ZIGBEE_PANID_CONFLICT )
     85            ZDNwkMgr_Init( taskID++ );
   \   00003F                ; Setup parameters for call to function ZDNwkMgr_Init
   \   00003F   7907         MOV     R1,#0x7
   \   000041   12....       LCALL   ??ZDNwkMgr_Init?relay
     86          #endif
     87            SampleApp_Init( taskID );
   \   000044                ; Setup parameters for call to function SampleApp_Init
   \   000044   7908         MOV     R1,#0x8
   \   000046   12....       LCALL   ??SampleApp_Init?relay
     88          }
   \   000049   D083         POP     DPH
   \   00004B   D082         POP     DPL
   \   00004D   02....       LJMP    ?BRET

   \                                 In  segment BANK_RELAYS, align 1
   \                     ??osalInitTasks?relay:
   \   000000   12....       LCALL   ?BDISPATCH
   \   000003   ......       DC24    osalInitTasks
     89          
     90          /*********************************************************************
     91          *********************************************************************/

   Maximum stack usage in bytes:

     Function            ISTACK PSTACK XSTACK
     --------            ------ ------ ------
     osalInitTasks           2      0      0
       -> osal_mem_alloc     4      0      0
       -> osal_memset        4      0      0
       -> macTaskInit        4      0      0
       -> nwk_init           4      0      0
       -> Hal_Init           4      0      0
       -> MT_TaskInit        4      0      0
       -> APS_Init           4      0      0
       -> APSF_Init          4      0      0
       -> ZDApp_Init         4      0      0
       -> ZDNwkMgr_Init      4      0      0
       -> SampleApp_Init     4      0      0


   Segment part sizes:

     Function/Label        Bytes
     --------------        -----
     tasksArr                18
     tasksCnt                 1
     tasksEvents              2
     osalInitTasks           80
     ??osalInitTasks?relay    6

 
 80 bytes in segment BANKED_CODE
  6 bytes in segment BANK_RELAYS
 19 bytes in segment XDATA_ROM_C
  2 bytes in segment XDATA_Z
 
 86 bytes of CODE  memory
 19 bytes of CONST memory
  2 bytes of XDATA memory

Errors: none
Warnings: none
